target datalayout = "e-m:e-p270:32:32-p271:32:32-p272:64:64-i64:64-i128:128-f80:128-n8:16:32:64-S128"
target triple = "x86_64-pc-linux-gnu"

%struct.lv_i18n_lang_t = type { ptr, ptr, [6 x ptr], ptr }
%struct.lv_i18n_phrase_t = type { ptr, ptr }

@current_lang_pack = internal global ptr null, align 8
@current_lang = internal global ptr null, align 8

; Function Attrs: nounwind uwtable
define internal ptr @__lv_i18n_get_text_core(ptr noundef %0, ptr noundef %1) #0 {
  %3 = alloca ptr, align 8
  %4 = alloca ptr, align 8
  %5 = alloca ptr, align 8
  %6 = alloca i16, align 2
  %7 = alloca i32, align 4
  store ptr %0, ptr %4, align 8, !tbaa !3
  store ptr %1, ptr %5, align 8, !tbaa !3
  call void @llvm.lifetime.start.p0(i64 2, ptr %6) #4
  store i16 0, ptr %6, align 2, !tbaa !7
  br label %8

8:                                                ; preds = %43, %2
  %9 = load ptr, ptr %4, align 8, !tbaa !3
  %10 = load i16, ptr %6, align 2, !tbaa !7
  %11 = zext i16 %10 to i64
  %12 = getelementptr inbounds nuw %struct.lv_i18n_phrase_t, ptr %9, i64 %11
  %13 = getelementptr inbounds nuw %struct.lv_i18n_phrase_t, ptr %12, i32 0, i32 0
  %14 = load ptr, ptr %13, align 8, !tbaa !14
  %15 = icmp ne ptr %14, null
  br i1 %15, label %16, label %46

16:                                               ; preds = %8
  %17 = load ptr, ptr %4, align 8, !tbaa !3
  %18 = load i16, ptr %6, align 2, !tbaa !7
  %19 = zext i16 %18 to i64
  %20 = getelementptr inbounds nuw %struct.lv_i18n_phrase_t, ptr %17, i64 %19
  %21 = getelementptr inbounds nuw %struct.lv_i18n_phrase_t, ptr %20, i32 0, i32 0
  %22 = load ptr, ptr %21, align 8, !tbaa !14
  %23 = load ptr, ptr %5, align 8, !tbaa !3
  %24 = call i32 @lv_strcmp(ptr noundef %22, ptr noundef %23)
  %25 = icmp eq i32 %24, 0
  br i1 %25, label %26, label %42

26:                                               ; preds = %16
  %27 = load ptr, ptr %4, align 8, !tbaa !3
  %28 = load i16, ptr %6, align 2, !tbaa !7
  %29 = zext i16 %28 to i64
  %30 = getelementptr inbounds nuw %struct.lv_i18n_phrase_t, ptr %27, i64 %29
  %31 = getelementptr inbounds nuw %struct.lv_i18n_phrase_t, ptr %30, i32 0, i32 1
  %32 = load ptr, ptr %31, align 8, !tbaa !16
  %33 = icmp ne ptr %32, null
  br i1 %33, label %34, label %41

34:                                               ; preds = %26
  %35 = load ptr, ptr %4, align 8, !tbaa !3
  %36 = load i16, ptr %6, align 2, !tbaa !7
  %37 = zext i16 %36 to i64
  %38 = getelementptr inbounds nuw %struct.lv_i18n_phrase_t, ptr %35, i64 %37
  %39 = getelementptr inbounds nuw %struct.lv_i18n_phrase_t, ptr %38, i32 0, i32 1
  %40 = load ptr, ptr %39, align 8, !tbaa !16
  store ptr %40, ptr %3, align 8
  store i32 1, ptr %7, align 4
  br label %47

41:                                               ; preds = %26
  br label %42

42:                                               ; preds = %41, %16
  br label %43

43:                                               ; preds = %42
  %44 = load i16, ptr %6, align 2, !tbaa !7
  %45 = add i16 %44, 1
  store i16 %45, ptr %6, align 2, !tbaa !7
  br label %8, !llvm.loop !17

46:                                               ; preds = %8
  store ptr null, ptr %3, align 8
  store i32 1, ptr %7, align 4
  br label %47

47:                                               ; preds = %46, %34
  call void @llvm.lifetime.end.p0(i64 2, ptr %6) #4
  %48 = load ptr, ptr %3, align 8
  ret ptr %48
}

; Function Attrs: nounwind uwtable
define ptr @lv_i18n_get_text_plural(ptr noundef %0, i32 noundef %1) #0 {
  %3 = alloca ptr, align 8
  %4 = alloca ptr, align 8
  %5 = alloca i32, align 4
  %6 = alloca ptr, align 8
  %7 = alloca ptr, align 8
  %8 = alloca i32, align 4
  %9 = alloca i32, align 4
  store ptr %0, ptr %4, align 8, !tbaa !3
  store i32 %1, ptr %5, align 4, !tbaa !18
  %10 = load ptr, ptr @current_lang, align 8, !tbaa !3
  %11 = icmp eq ptr %10, null
  br i1 %11, label %12, label %14

12:                                               ; preds = %2
  %13 = load ptr, ptr %4, align 8, !tbaa !3
  store ptr %13, ptr %3, align 8
  br label %97

14:                                               ; preds = %2
  call void @llvm.lifetime.start.p0(i64 8, ptr %6) #4
  %15 = load ptr, ptr @current_lang, align 8, !tbaa !3
  store ptr %15, ptr %6, align 8, !tbaa !3
  call void @llvm.lifetime.start.p0(i64 8, ptr %7) #4
  call void @llvm.lifetime.start.p0(i64 4, ptr %8) #4
  %16 = load ptr, ptr %6, align 8, !tbaa !3
  %17 = getelementptr inbounds nuw %struct.lv_i18n_lang_t, ptr %16, i32 0, i32 3
  %18 = load ptr, ptr %17, align 8, !tbaa !20
  %19 = icmp ne ptr %18, null
  br i1 %19, label %20, label %49

20:                                               ; preds = %14
  %21 = load ptr, ptr %6, align 8, !tbaa !3
  %22 = getelementptr inbounds nuw %struct.lv_i18n_lang_t, ptr %21, i32 0, i32 3
  %23 = load ptr, ptr %22, align 8, !tbaa !20
  %24 = load i32, ptr %5, align 4, !tbaa !18
  %25 = call zeroext i8 %23(i32 noundef %24)
  %26 = zext i8 %25 to i32
  store i32 %26, ptr %8, align 4, !tbaa !18
  %27 = load ptr, ptr %6, align 8, !tbaa !3
  %28 = getelementptr inbounds nuw %struct.lv_i18n_lang_t, ptr %27, i32 0, i32 2
  %29 = load i32, ptr %8, align 4, !tbaa !18
  %30 = zext i32 %29 to i64
  %31 = getelementptr inbounds nuw [6 x ptr], ptr %28, i64 0, i64 %30
  %32 = load ptr, ptr %31, align 8, !tbaa !3
  %33 = icmp ne ptr %32, null
  br i1 %33, label %34, label %48

34:                                               ; preds = %20
  %35 = load ptr, ptr %6, align 8, !tbaa !3
  %36 = getelementptr inbounds nuw %struct.lv_i18n_lang_t, ptr %35, i32 0, i32 2
  %37 = load i32, ptr %8, align 4, !tbaa !18
  %38 = zext i32 %37 to i64
  %39 = getelementptr inbounds nuw [6 x ptr], ptr %36, i64 0, i64 %38
  %40 = load ptr, ptr %39, align 8, !tbaa !3
  %41 = load ptr, ptr %4, align 8, !tbaa !3
  %42 = call ptr @__lv_i18n_get_text_core(ptr noundef %40, ptr noundef %41)
  store ptr %42, ptr %7, align 8, !tbaa !3
  %43 = load ptr, ptr %7, align 8, !tbaa !3
  %44 = icmp ne ptr %43, null
  br i1 %44, label %45, label %47

45:                                               ; preds = %34
  %46 = load ptr, ptr %7, align 8, !tbaa !3
  store ptr %46, ptr %3, align 8
  store i32 1, ptr %9, align 4
  br label %96

47:                                               ; preds = %34
  br label %48

48:                                               ; preds = %47, %20
  br label %49

49:                                               ; preds = %48, %14
  %50 = load ptr, ptr %6, align 8, !tbaa !3
  %51 = load ptr, ptr @current_lang_pack, align 8, !tbaa !3
  %52 = getelementptr inbounds ptr, ptr %51, i64 0
  %53 = load ptr, ptr %52, align 8, !tbaa !3
  %54 = icmp eq ptr %50, %53
  br i1 %54, label %55, label %57

55:                                               ; preds = %49
  %56 = load ptr, ptr %4, align 8, !tbaa !3
  store ptr %56, ptr %3, align 8
  store i32 1, ptr %9, align 4
  br label %96

57:                                               ; preds = %49
  %58 = load ptr, ptr @current_lang_pack, align 8, !tbaa !3
  %59 = getelementptr inbounds ptr, ptr %58, i64 0
  %60 = load ptr, ptr %59, align 8, !tbaa !3
  store ptr %60, ptr %6, align 8, !tbaa !3
  %61 = load ptr, ptr %6, align 8, !tbaa !3
  %62 = getelementptr inbounds nuw %struct.lv_i18n_lang_t, ptr %61, i32 0, i32 3
  %63 = load ptr, ptr %62, align 8, !tbaa !20
  %64 = icmp ne ptr %63, null
  br i1 %64, label %65, label %94

65:                                               ; preds = %57
  %66 = load ptr, ptr %6, align 8, !tbaa !3
  %67 = getelementptr inbounds nuw %struct.lv_i18n_lang_t, ptr %66, i32 0, i32 3
  %68 = load ptr, ptr %67, align 8, !tbaa !20
  %69 = load i32, ptr %5, align 4, !tbaa !18
  %70 = call zeroext i8 %68(i32 noundef %69)
  %71 = zext i8 %70 to i32
  store i32 %71, ptr %8, align 4, !tbaa !18
  %72 = load ptr, ptr %6, align 8, !tbaa !3
  %73 = getelementptr inbounds nuw %struct.lv_i18n_lang_t, ptr %72, i32 0, i32 2
  %74 = load i32, ptr %8, align 4, !tbaa !18
  %75 = zext i32 %74 to i64
  %76 = getelementptr inbounds nuw [6 x ptr], ptr %73, i64 0, i64 %75
  %77 = load ptr, ptr %76, align 8, !tbaa !3
  %78 = icmp ne ptr %77, null
  br i1 %78, label %79, label %93

79:                                               ; preds = %65
  %80 = load ptr, ptr %6, align 8, !tbaa !3
  %81 = getelementptr inbounds nuw %struct.lv_i18n_lang_t, ptr %80, i32 0, i32 2
  %82 = load i32, ptr %8, align 4, !tbaa !18
  %83 = zext i32 %82 to i64
  %84 = getelementptr inbounds nuw [6 x ptr], ptr %81, i64 0, i64 %83
  %85 = load ptr, ptr %84, align 8, !tbaa !3
  %86 = load ptr, ptr %4, align 8, !tbaa !3
  %87 = call ptr @__lv_i18n_get_text_core(ptr noundef %85, ptr noundef %86)
  store ptr %87, ptr %7, align 8, !tbaa !3
  %88 = load ptr, ptr %7, align 8, !tbaa !3
  %89 = icmp ne ptr %88, null
  br i1 %89, label %90, label %92

90:                                               ; preds = %79
  %91 = load ptr, ptr %7, align 8, !tbaa !3
  store ptr %91, ptr %3, align 8
  store i32 1, ptr %9, align 4
  br label %96

92:                                               ; preds = %79
  br label %93

93:                                               ; preds = %92, %65
  br label %94

94:                                               ; preds = %93, %57
  %95 = load ptr, ptr %4, align 8, !tbaa !3
  store ptr %95, ptr %3, align 8
  store i32 1, ptr %9, align 4
  br label %96

96:                                               ; preds = %94, %90, %55, %45
  call void @llvm.lifetime.end.p0(i64 4, ptr %8) #4
  call void @llvm.lifetime.end.p0(i64 8, ptr %7) #4
  call void @llvm.lifetime.end.p0(i64 8, ptr %6) #4
  br label %97

97:                                               ; preds = %96, %12
  %98 = load ptr, ptr %3, align 8
  ret ptr %98
}