; Function Attrs: nounwind uwtable
define ptr @lv_i18n_get_text_plural(ptr noundef %0, i32 noundef %1) local_unnamed_addr #2 {
  %3 = load ptr, ptr @current_lang, align 8, !tbaa !3
  %4 = icmp eq ptr %3, null
  br i1 %4, label %__lv_i18n_get_text_core.exit, label %5

5:                                                ; preds = %2
  %6 = getelementptr inbounds nuw i8, ptr %3, i64 64
  %7 = load ptr, ptr %6, align 8, !tbaa !16
  %.not = icmp eq ptr %7, null
  br i1 %.not, label %__lv_i18n_get_text_core.exit.thread, label %8

8:                                                ; preds = %5
  %9 = tail call zeroext i8 %7(i32 noundef %1) #7
  %10 = getelementptr inbounds nuw i8, ptr %3, i64 16
  %11 = zext i8 %9 to i64
  %12 = getelementptr inbounds nuw [6 x ptr], ptr %10, i64 0, i64 %11
  %13 = load ptr, ptr %12, align 8, !tbaa !3
  %.not32 = icmp eq ptr %13, null
  br i1 %.not32, label %__lv_i18n_get_text_core.exit.thread, label %14

14:                                               ; preds = %8
  %15 = load ptr, ptr %13, align 8, !tbaa !12
  %.not14.i = icmp eq ptr %15, null
  br i1 %.not14.i, label %__lv_i18n_get_text_core.exit.thread, label %.lr.ph.i

.lr.ph.i:                                         ; preds = %14, %23
  %16 = phi ptr [ %27, %23 ], [ %15, %14 ]
  %17 = phi ptr [ %26, %23 ], [ %13, %14 ]
  %.015.i = phi i16 [ %24, %23 ], [ 0, %14 ]
  %18 = tail call i32 @lv_strcmp(ptr noundef nonnull %16, ptr noundef %0) #7
  %19 = icmp eq i32 %18, 0
  br i1 %19, label %20, label %23

20:                                               ; preds = %.lr.ph.i
  %21 = getelementptr inbounds nuw i8, ptr %17, i64 8
  %22 = load ptr, ptr %21, align 8, !tbaa !14
  %.not13.i = icmp eq ptr %22, null
  br i1 %.not13.i, label %23, label %__lv_i18n_get_text_core.exit

23:                                               ; preds = %20, %.lr.ph.i
  %24 = add i16 %.015.i, 1
  %25 = zext i16 %24 to i64
  %26 = getelementptr inbounds nuw %struct.lv_i18n_phrase_t, ptr %13, i64 %25
  %27 = load ptr, ptr %26, align 8, !tbaa !12
  %.not.i = icmp eq ptr %27, null
  br i1 %.not.i, label %__lv_i18n_get_text_core.exit.thread, label %.lr.ph.i, !llvm.loop !15

__lv_i18n_get_text_core.exit.thread:              ; preds = %23, %14, %8, %5
  %28 = load ptr, ptr @current_lang_pack, align 8, !tbaa !3
  %29 = load ptr, ptr %28, align 8, !tbaa !3
  %30 = icmp eq ptr %3, %29
  br i1 %30, label %__lv_i18n_get_text_core.exit, label %31

31:                                               ; preds = %__lv_i18n_get_text_core.exit.thread
  %32 = getelementptr inbounds nuw i8, ptr %29, i64 64
  %33 = load ptr, ptr %32, align 8, !tbaa !16
  %.not34 = icmp eq ptr %33, null
  br i1 %.not34, label %__lv_i18n_get_text_core.exit, label %34

34:                                               ; preds = %31
  %35 = tail call zeroext i8 %33(i32 noundef %1) #7
  %36 = getelementptr inbounds nuw i8, ptr %29, i64 16
  %37 = zext i8 %35 to i64
  %38 = getelementptr inbounds nuw [6 x ptr], ptr %36, i64 0, i64 %37
  %39 = load ptr, ptr %38, align 8, !tbaa !3
  %.not35 = icmp eq ptr %39, null
  br i1 %.not35, label %__lv_i18n_get_text_core.exit, label %40

40:                                               ; preds = %34
  %41 = load ptr, ptr %39, align 8, !tbaa !12
  %.not14.i37 = icmp eq ptr %41, null
  br i1 %.not14.i37, label %__lv_i18n_get_text_core.exit, label %.lr.ph.i38

.lr.ph.i38:                                       ; preds = %40, %49
  %42 = phi ptr [ %53, %49 ], [ %41, %40 ]
  %43 = phi ptr [ %52, %49 ], [ %39, %40 ]
  %.015.i39 = phi i16 [ %50, %49 ], [ 0, %40 ]
  %44 = tail call i32 @lv_strcmp(ptr noundef nonnull %42, ptr noundef %0) #7
  %45 = icmp eq i32 %44, 0
  br i1 %45, label %46, label %49

46:                                               ; preds = %.lr.ph.i38
  %47 = getelementptr inbounds nuw i8, ptr %43, i64 8
  %48 = load ptr, ptr %47, align 8, !tbaa !14
  %.not13.i42 = icmp eq ptr %48, null
  br i1 %.not13.i42, label %49, label %__lv_i18n_get_text_core.exit

49:                                               ; preds = %46, %.lr.ph.i38
  %50 = add i16 %.015.i39, 1
  %51 = zext i16 %50 to i64
  %52 = getelementptr inbounds nuw %struct.lv_i18n_phrase_t, ptr %39, i64 %51
  %53 = load ptr, ptr %52, align 8, !tbaa !12
  %.not.i40 = icmp eq ptr %53, null
  br i1 %.not.i40, label %__lv_i18n_get_text_core.exit, label %.lr.ph.i38, !llvm.loop !15

__lv_i18n_get_text_core.exit:                     ; preds = %20, %49, %46, %40, %31, %34, %__lv_i18n_get_text_core.exit.thread, %2
  %.0 = phi ptr [ %0, %2 ], [ %0, %__lv_i18n_get_text_core.exit.thread ], [ %0, %34 ], [ %0, %31 ], [ %0, %40 ], [ %0, %49 ], [ %48, %46 ], [ %22, %20 ]
  ret ptr %.0
}